target datalayout = "e-m:e-p270:32:32-p271:32:32-p272:64:64-i64:64-i128:128-f80:128-n8:16:32:64-S128"
target triple = "x86_64-pc-linux-gnu"

%struct.pollfd = type { i32, i16, i16 }

; Function Attrs: nounwind uwtable
define i32 @ff_network_wait_fd(i32 noundef %0, i32 noundef %1) #0 {
  %3 = alloca i32, align 4
  %4 = alloca i32, align 4
  %5 = alloca i32, align 4
  %6 = alloca %struct.pollfd, align 4
  %7 = alloca i32, align 4
  store i32 %0, ptr %3, align 4, !tbaa !4
  store i32 %1, ptr %4, align 4, !tbaa !4
  call void @llvm.lifetime.start.p0(i64 4, ptr %5) #10
  %8 = load i32, ptr %4, align 4, !tbaa !4
  %9 = icmp ne i32 %8, 0
  %10 = select i1 %9, i32 4, i32 1
  store i32 %10, ptr %5, align 4, !tbaa !4
  call void @llvm.lifetime.start.p0(i64 8, ptr %6) #10
  %11 = getelementptr inbounds nuw %struct.pollfd, ptr %6, i32 0, i32 0
  %12 = load i32, ptr %3, align 4, !tbaa !4
  store i32 %12, ptr %11, align 4, !tbaa !8
  %13 = getelementptr inbounds nuw %struct.pollfd, ptr %6, i32 0, i32 1
  %14 = load i32, ptr %5, align 4, !tbaa !4
  %15 = trunc i32 %14 to i16
  store i16 %15, ptr %13, align 4, !tbaa !11
  %16 = getelementptr inbounds nuw %struct.pollfd, ptr %6, i32 0, i32 2
  store i16 0, ptr %16, align 2, !tbaa !12
  call void @llvm.lifetime.start.p0(i64 4, ptr %7) #10
  %17 = call i32 @poll(ptr noundef %6, i64 noundef 1, i32 noundef 100)
  store i32 %17, ptr %7, align 4, !tbaa !4
  %18 = load i32, ptr %7, align 4, !tbaa !4
  %19 = icmp slt i32 %18, 0
  br i1 %19, label %20, label %24

20:                                               ; preds = %2
  %21 = call ptr @__errno_location() #11
  %22 = load i32, ptr %21, align 4, !tbaa !4
  %23 = sub nsw i32 0, %22
  br label %34

24:                                               ; preds = %2
  %25 = getelementptr inbounds nuw %struct.pollfd, ptr %6, i32 0, i32 2
  %26 = load i16, ptr %25, align 2, !tbaa !12
  %27 = sext i16 %26 to i32
  %28 = load i32, ptr %5, align 4, !tbaa !4
  %29 = or i32 %28, 8
  %30 = or i32 %29, 16
  %31 = and i32 %27, %30
  %32 = icmp ne i32 %31, 0
  %33 = select i1 %32, i32 0, i32 -11
  br label %34

34:                                               ; preds = %24, %20
  %35 = phi i32 [ %23, %20 ], [ %33, %24 ]
  call void @llvm.lifetime.end.p0(i64 4, ptr %7) #10
  call void @llvm.lifetime.end.p0(i64 8, ptr %6) #10
  call void @llvm.lifetime.end.p0(i64 4, ptr %5) #10
  ret i32 %35
}