; Function Attrs: nounwind uwtable
define range(i32 -2147483647, -2147483648) i32 @ff_network_wait_fd(i32 noundef %0, i32 noundef %1) local_unnamed_addr #1 {
  %3 = alloca %struct.pollfd, align 4
  %.not = icmp eq i32 %1, 0
  %4 = select i1 %.not, i32 1, i32 4
  call void @llvm.lifetime.start.p0(i64 8, ptr nonnull %3) #12
  store i32 %0, ptr %3, align 4, !tbaa !4
  %5 = getelementptr inbounds nuw i8, ptr %3, i64 4
  %6 = trunc nuw nsw i32 %4 to i16
  store i16 %6, ptr %5, align 4, !tbaa !10
  %7 = getelementptr inbounds nuw i8, ptr %3, i64 6
  store i16 0, ptr %7, align 2, !tbaa !11
  %8 = call i32 @poll(ptr noundef nonnull %3, i64 noundef 1, i32 noundef 100) #12
  %9 = icmp slt i32 %8, 0
  br i1 %9, label %10, label %14

10:                                               ; preds = %2
  %11 = tail call ptr @__errno_location() #13
  %12 = load i32, ptr %11, align 4, !tbaa !12
  %13 = sub nsw i32 0, %12
  br label %20

14:                                               ; preds = %2
  %15 = load i16, ptr %7, align 2, !tbaa !11
  %16 = zext i16 %15 to i32
  %17 = or disjoint i32 %4, 24
  %18 = and i32 %17, %16
  %.not5 = icmp eq i32 %18, 0
  %19 = select i1 %.not5, i32 -11, i32 0
  br label %20

20:                                               ; preds = %14, %10
  %21 = phi i32 [ %13, %10 ], [ %19, %14 ]
  call void @llvm.lifetime.end.p0(i64 8, ptr nonnull %3) #12
  ret i32 %21
}